target datalayout = "e-m:e-p270:32:32-p271:32:32-p272:64:64-i64:64-i128:128-f80:128-n8:16:32:64-S128"
target triple = "x86_64-pc-linux-gnu"

@_ZN4moldL13pipe_write_fdE = internal global i32 -1, align 4
@__const._ZN4mold13notify_parentEv.buf = private unnamed_addr constant [1 x i8] c"\01", align 1

; Function Attrs: mustprogress nounwind
define dso_local void @_ZN4mold13notify_parentEv() #4 {
  %1 = alloca [1 x i8], align 1
  %2 = alloca i32, align 4
  %3 = load i32, ptr @_ZN4moldL13pipe_write_fdE, align 4, !tbaa !15
  %4 = icmp eq i32 %3, -1
  br i1 %4, label %5, label %6

5:                                                ; preds = %0
  br label %11

6:                                                ; preds = %0
  call void @llvm.lifetime.start.p0(i64 1, ptr %1) #3
  call void @llvm.memcpy.p0.p0.i64(ptr align 1 %1, ptr align 1 @__const._ZN4mold13notify_parentEv.buf, i64 1, i1 false)
  call void @llvm.lifetime.start.p0(i64 4, ptr %2) #3
  %7 = load i32, ptr @_ZN4moldL13pipe_write_fdE, align 4, !tbaa !15
  %8 = getelementptr inbounds [1 x i8], ptr %1, i64 0, i64 0
  %9 = call i64 @write(i32 noundef %7, ptr noundef %8, i64 noundef 1)
  %10 = trunc i64 %9 to i32
  store i32 %10, ptr %2, align 4, !tbaa !15
  store i32 -1, ptr @_ZN4moldL13pipe_write_fdE, align 4, !tbaa !15
  call void @llvm.lifetime.end.p0(i64 4, ptr %2) #3
  call void @llvm.lifetime.end.p0(i64 1, ptr %1) #3
  br label %11

11:                                               ; preds = %6, %5
  ret void
}