; Function Attrs: mustprogress nofree nounwind
define dso_local void @_ZN4mold13notify_parentEv() local_unnamed_addr #12 {
  %1 = load i32, ptr @_ZN4moldL13pipe_write_fdE, align 4, !tbaa !342
  %2 = icmp eq i32 %1, -1
  br i1 %2, label %5, label %3

3:                                                ; preds = %0
  %4 = tail call i64 @write(i32 noundef %1, ptr noundef nonnull @__const._ZN4mold13notify_parentEv.buf, i64 noundef 1) #24
  store i32 -1, ptr @_ZN4moldL13pipe_write_fdE, align 4, !tbaa !342
  br label %5

5:                                                ; preds = %0, %3
  ret void
}